; Function Attrs: mustprogress uwtable
define hidden noundef zeroext i1 @_ZN3smt10theory_seq20branch_unit_variableEv(ptr noundef nonnull align 8 dereferenceable(4328) %0) local_unnamed_addr #4 align 2 {
  %2 = alloca %"struct.seq::eqr", align 8
  %3 = getelementptr inbounds nuw i8, ptr %0, i64 240
  %4 = load i32, ptr %3, align 8, !tbaa !22
  %.not20.not = icmp eq i32 %4, 0
  br i1 %.not20.not, label %._crit_edge, label %.lr.ph

.lr.ph:                                           ; preds = %1
  %5 = getelementptr inbounds nuw i8, ptr %0, i64 256
  %6 = getelementptr inbounds nuw i8, ptr %0, i64 272
  %7 = getelementptr inbounds nuw i8, ptr %2, i64 8
  %8 = getelementptr inbounds nuw i8, ptr %0, i64 4256
  %9 = getelementptr inbounds nuw i8, ptr %0, i64 3456
  %10 = zext i32 %4 to i64
  br label %11

11:                                               ; preds = %11, %.lr.ph
  %indvars.iv = phi i64 [ 0, %.lr.ph ], [ %indvars.iv.next, %11 ]
  %12 = load ptr, ptr %6, align 8, !tbaa !194
  %13 = getelementptr inbounds nuw i32, ptr %12, i64 %indvars.iv
  %14 = load i32, ptr %13, align 4, !tbaa !195
  %15 = load ptr, ptr %5, align 8, !tbaa !196
  %16 = zext i32 %14 to i64
  %17 = getelementptr inbounds nuw %"class.smt::theory_seq::depeq", ptr %15, i64 %16
  call void @llvm.lifetime.start.p0(i64 16, ptr nonnull %2) #22
  %18 = getelementptr inbounds nuw i8, ptr %17, i64 16
  store ptr %17, ptr %2, align 8, !tbaa !213
  store ptr %18, ptr %7, align 8, !tbaa !213
  %19 = getelementptr inbounds nuw i8, ptr %17, i64 40
  %20 = load ptr, ptr %19, align 8, !tbaa !205
  store ptr %20, ptr %8, align 8, !tbaa !212
  %21 = call noundef zeroext i1 @_ZN3seq9eq_solver6branchEjRKNS_3eqrE(ptr noundef nonnull align 8 dereferenceable(200) %9, i32 noundef 0, ptr noundef nonnull align 8 dereferenceable(16) %2)
  call void @llvm.lifetime.end.p0(i64 16, ptr nonnull %2) #22
  %indvars.iv.next = add nuw nsw i64 %indvars.iv, 1
  %.not.not = icmp eq i64 %indvars.iv.next, %10
  %or.cond = select i1 %21, i1 true, i1 %.not.not
  br i1 %or.cond, label %._crit_edge, label %11

._crit_edge:                                      ; preds = %11, %1
  %.not.lcssa = phi i1 [ false, %1 ], [ %21, %11 ]
  ret i1 %.not.lcssa
}